; Function Attrs: mustprogress nounwind uwtable
define hidden void @_ZN14MacroAssembler5vfmafE11XMMRegisterS0_7AddressS0_i(ptr noundef nonnull align 8 dereferenceable(40) %0, i32 %1, i32 %2, ptr noundef %3, i32 %4, i32 noundef %5) local_unnamed_addr #0 align 2 {
  %7 = alloca %class.Address, align 8
  call void @llvm.memcpy.p0.p0.i64(ptr noundef nonnull align 8 dereferenceable(21) %7, ptr noundef nonnull align 8 dereferenceable(21) %3, i64 21, i1 false)
  %8 = getelementptr inbounds i8, ptr %7, i64 24
  %9 = getelementptr inbounds i8, ptr %3, i64 24
  %10 = load ptr, ptr %9, align 8
  %11 = getelementptr inbounds i8, ptr %10, i64 16
  %12 = load ptr, ptr %11, align 8
  call void %12(ptr noundef nonnull align 8 dereferenceable(20) %9, ptr noundef nonnull align 8 dereferenceable(40) %8) #18
  call void @_ZN9Assembler11vfmadd231psE11XMMRegisterS0_7Addressi(ptr noundef nonnull align 8 dereferenceable(40) %0, i32 %4, i32 %2, ptr noundef nonnull %7, i32 noundef %5) #18
  %.not10 = icmp eq i32 %1, %4
  br i1 %.not10, label %14, label %13

13:                                               ; preds = %6
  call void @_ZN9Assembler7vmovdquE11XMMRegisterS0_(ptr noundef nonnull align 8 dereferenceable(40) %0, i32 %1, i32 %4) #18
  br label %14

14:                                               ; preds = %13, %6
  ret void
}